; Function Attrs: null_pointer_is_valid sspstrong uwtable
define internal i32 @dissect_inap_T_value(i1 zeroext %0, ptr noundef %1, i32 noundef %2, ptr noundef readonly captures(none) %3, ptr noundef %4, i32 %5) #0 {
  %7 = load i32, ptr @ett_inap_extension_data, align 4
  %8 = tail call ptr @proto_tree_add_subtree(ptr noundef %4, ptr noundef %1, i32 noundef %2, i32 noundef -1, i32 noundef %7, ptr noundef null, ptr noundef nonnull @.str.1552)
  %9 = load ptr, ptr @obj_id, align 8
  %.not = icmp eq ptr %9, null
  %10 = getelementptr inbounds nuw i8, ptr %3, i64 16
  %11 = load ptr, ptr %10, align 8
  br i1 %.not, label %14, label %12

12:                                               ; preds = %6
  %13 = tail call i32 @call_ber_oid_callback(ptr noundef nonnull %9, ptr noundef %1, i32 noundef %2, ptr noundef %11, ptr noundef %8, ptr noundef null)
  br label %17

14:                                               ; preds = %6
  %15 = tail call i32 @call_data_dissector(ptr noundef %1, ptr noundef %11, ptr noundef %8)
  %16 = tail call i32 @tvb_reported_length_remaining(ptr noundef %1, i32 noundef %2)
  br label %17

17:                                               ; preds = %14, %12
  %.0 = phi i32 [ %13, %12 ], [ %16, %14 ]
  store i1 false, ptr @is_ExtensionField, align 1
  ret i32 %.0
}